target datalayout = "e-m:e-p270:32:32-p271:32:32-p272:64:64-i64:64-i128:128-f80:128-n8:16:32:64-S128"
target triple = "x86_64-pc-linux-gnu"

%struct.SEIRawMessage = type { i32, i32, ptr, ptr, ptr, i64 }
%struct.SEIRawMessageList = type { ptr, i32, i32 }
%struct.H264RawSEI = type { %struct.H264RawNALUnitHeader, %struct.SEIRawMessageList }
%struct.H264RawNALUnitHeader = type { i8, i8, i8, i8 }
%struct.H265RawSEI = type { %struct.H265RawNALUnitHeader, %struct.SEIRawMessageList }
%struct.H265RawNALUnitHeader = type { i8, i8, i8 }
%struct.H266RawSEI = type { %struct.H266RawNALUnitHeader, %struct.SEIRawMessageList }
%struct.H266RawNALUnitHeader = type { i8, i8, i8, i8 }
%struct.CodedBitstreamContext = type { ptr, ptr, ptr, ptr, i32, i32, i32, ptr, ptr, ptr, ptr, i64 }
%struct.CodedBitstreamType = type { i32, ptr, i64, ptr, ptr, ptr, ptr, ptr, ptr, ptr, ptr }
%struct.CodedBitstreamFragment = type { ptr, i64, i64, ptr, i32, i32, ptr }
%struct.CodedBitstreamUnit = type { i32, ptr, i64, i64, ptr, ptr, ptr }

@.str = private unnamed_addr constant [30 x i8] c"Assertion %s failed at %s:%d\0A\00", align 1
@.str.2 = private unnamed_addr constant [21 x i8] c"libavcodec/cbs_sei.c\00", align 1
@.str.5 = private unnamed_addr constant [46 x i8] c"0 <= position && position < list->nb_messages\00", align 1

; Function Attrs: nounwind uwtable
define internal void @cbs_sei_delete_message(ptr noundef %0, i32 noundef %1) #0 {
  %3 = alloca ptr, align 8
  %4 = alloca i32, align 4
  %5 = alloca ptr, align 8
  store ptr %0, ptr %3, align 8, !tbaa !29
  store i32 %1, ptr %4, align 4, !tbaa !27
  call void @llvm.lifetime.start.p0(i64 8, ptr %5) #7
  br label %6

6:                                                ; preds = %2
  %7 = load i32, ptr %4, align 4, !tbaa !27
  %8 = icmp sle i32 0, %7
  br i1 %8, label %9, label %15

9:                                                ; preds = %6
  %10 = load i32, ptr %4, align 4, !tbaa !27
  %11 = load ptr, ptr %3, align 8, !tbaa !29
  %12 = getelementptr inbounds nuw %struct.SEIRawMessageList, ptr %11, i32 0, i32 1
  %13 = load i32, ptr %12, align 8, !tbaa !33
  %14 = icmp slt i32 %10, %13
  br i1 %14, label %16, label %15

15:                                               ; preds = %9, %6
  call void (ptr, i32, ptr, ...) @av_log(ptr noundef null, i32 noundef 0, ptr noundef @.str, ptr noundef @.str.5, ptr noundef @.str.2, i32 noundef 352)
  call void @abort() #8
  unreachable

16:                                               ; preds = %9
  br label %17

17:                                               ; preds = %16
  br label %18

18:                                               ; preds = %17
  %19 = load ptr, ptr %3, align 8, !tbaa !29
  %20 = getelementptr inbounds nuw %struct.SEIRawMessageList, ptr %19, i32 0, i32 0
  %21 = load ptr, ptr %20, align 8, !tbaa !34
  %22 = load i32, ptr %4, align 4, !tbaa !27
  %23 = sext i32 %22 to i64
  %24 = getelementptr inbounds %struct.SEIRawMessage, ptr %21, i64 %23
  store ptr %24, ptr %5, align 8, !tbaa !4
  %25 = load ptr, ptr %5, align 8, !tbaa !4
  %26 = getelementptr inbounds nuw %struct.SEIRawMessage, ptr %25, i32 0, i32 3
  call void @av_refstruct_unref(ptr noundef %26)
  %27 = load ptr, ptr %5, align 8, !tbaa !4
  %28 = getelementptr inbounds nuw %struct.SEIRawMessage, ptr %27, i32 0, i32 4
  call void @av_refstruct_unref(ptr noundef %28)
  %29 = load ptr, ptr %3, align 8, !tbaa !29
  %30 = getelementptr inbounds nuw %struct.SEIRawMessageList, ptr %29, i32 0, i32 1
  %31 = load i32, ptr %30, align 8, !tbaa !33
  %32 = add nsw i32 %31, -1
  store i32 %32, ptr %30, align 8, !tbaa !33
  %33 = load ptr, ptr %3, align 8, !tbaa !29
  %34 = getelementptr inbounds nuw %struct.SEIRawMessageList, ptr %33, i32 0, i32 1
  %35 = load i32, ptr %34, align 8, !tbaa !33
  %36 = icmp sgt i32 %35, 0
  br i1 %36, label %37, label %58

37:                                               ; preds = %18
  %38 = load ptr, ptr %3, align 8, !tbaa !29
  %39 = getelementptr inbounds nuw %struct.SEIRawMessageList, ptr %38, i32 0, i32 0
  %40 = load ptr, ptr %39, align 8, !tbaa !34
  %41 = load i32, ptr %4, align 4, !tbaa !27
  %42 = sext i32 %41 to i64
  %43 = getelementptr inbounds %struct.SEIRawMessage, ptr %40, i64 %42
  %44 = load ptr, ptr %3, align 8, !tbaa !29
  %45 = getelementptr inbounds nuw %struct.SEIRawMessageList, ptr %44, i32 0, i32 0
  %46 = load ptr, ptr %45, align 8, !tbaa !34
  %47 = load i32, ptr %4, align 4, !tbaa !27
  %48 = sext i32 %47 to i64
  %49 = getelementptr inbounds %struct.SEIRawMessage, ptr %46, i64 %48
  %50 = getelementptr inbounds %struct.SEIRawMessage, ptr %49, i64 1
  %51 = load ptr, ptr %3, align 8, !tbaa !29
  %52 = getelementptr inbounds nuw %struct.SEIRawMessageList, ptr %51, i32 0, i32 1
  %53 = load i32, ptr %52, align 8, !tbaa !33
  %54 = load i32, ptr %4, align 4, !tbaa !27
  %55 = sub nsw i32 %53, %54
  %56 = sext i32 %55 to i64
  %57 = mul i64 %56, 40
  call void @llvm.memmove.p0.p0.i64(ptr align 8 %43, ptr align 8 %50, i64 %57, i1 false)
  br label %58

58:                                               ; preds = %37, %18
  call void @llvm.lifetime.end.p0(i64 8, ptr %5) #7
  ret void
}

; Function Attrs: nounwind uwtable
define internal i32 @cbs_sei_get_message_list(ptr noundef %0, ptr noundef %1, ptr noundef %2) #0 {
  %4 = alloca i32, align 4
  %5 = alloca ptr, align 8
  %6 = alloca ptr, align 8
  %7 = alloca ptr, align 8
  %8 = alloca ptr, align 8
  %9 = alloca i32, align 4
  %10 = alloca ptr, align 8
  %11 = alloca ptr, align 8
  store ptr %0, ptr %5, align 8, !tbaa !37
  store ptr %1, ptr %6, align 8, !tbaa !41
  store ptr %2, ptr %7, align 8, !tbaa !72
  %12 = load ptr, ptr %5, align 8, !tbaa !37
  %13 = getelementptr inbounds nuw %struct.CodedBitstreamContext, ptr %12, i32 0, i32 1
  %14 = load ptr, ptr %13, align 8, !tbaa !46
  %15 = getelementptr inbounds nuw %struct.CodedBitstreamType, ptr %14, i32 0, i32 0
  %16 = load i32, ptr %15, align 8, !tbaa !50
  switch i32 %16, label %75 [
    i32 27, label %17
    i32 173, label %33
    i32 196, label %54
  ]

17:                                               ; preds = %3
  call void @llvm.lifetime.start.p0(i64 8, ptr %8) #7
  %18 = load ptr, ptr %6, align 8, !tbaa !41
  %19 = getelementptr inbounds nuw %struct.CodedBitstreamUnit, ptr %18, i32 0, i32 5
  %20 = load ptr, ptr %19, align 8, !tbaa !65
  store ptr %20, ptr %8, align 8, !tbaa !74
  %21 = load ptr, ptr %6, align 8, !tbaa !41
  %22 = getelementptr inbounds nuw %struct.CodedBitstreamUnit, ptr %21, i32 0, i32 0
  %23 = load i32, ptr %22, align 8, !tbaa !58
  %24 = icmp ne i32 %23, 6
  br i1 %24, label %25, label %26

25:                                               ; preds = %17
  store i32 -22, ptr %4, align 4
  store i32 1, ptr %9, align 4
  br label %30

26:                                               ; preds = %17
  %27 = load ptr, ptr %8, align 8, !tbaa !74
  %28 = getelementptr inbounds nuw %struct.H264RawSEI, ptr %27, i32 0, i32 1
  %29 = load ptr, ptr %7, align 8, !tbaa !72
  store ptr %28, ptr %29, align 8, !tbaa !29
  store i32 0, ptr %9, align 4
  br label %30

30:                                               ; preds = %26, %25
  call void @llvm.lifetime.end.p0(i64 8, ptr %8) #7
  %31 = load i32, ptr %9, align 4
  switch i32 %31, label %79 [
    i32 0, label %32
    i32 1, label %77
  ]

32:                                               ; preds = %30
  br label %76

33:                                               ; preds = %3
  call void @llvm.lifetime.start.p0(i64 8, ptr %10) #7
  %34 = load ptr, ptr %6, align 8, !tbaa !41
  %35 = getelementptr inbounds nuw %struct.CodedBitstreamUnit, ptr %34, i32 0, i32 5
  %36 = load ptr, ptr %35, align 8, !tbaa !65
  store ptr %36, ptr %10, align 8, !tbaa !76
  %37 = load ptr, ptr %6, align 8, !tbaa !41
  %38 = getelementptr inbounds nuw %struct.CodedBitstreamUnit, ptr %37, i32 0, i32 0
  %39 = load i32, ptr %38, align 8, !tbaa !58
  %40 = icmp ne i32 %39, 39
  br i1 %40, label %41, label %47

41:                                               ; preds = %33
  %42 = load ptr, ptr %6, align 8, !tbaa !41
  %43 = getelementptr inbounds nuw %struct.CodedBitstreamUnit, ptr %42, i32 0, i32 0
  %44 = load i32, ptr %43, align 8, !tbaa !58
  %45 = icmp ne i32 %44, 40
  br i1 %45, label %46, label %47

46:                                               ; preds = %41
  store i32 -22, ptr %4, align 4
  store i32 1, ptr %9, align 4
  br label %51

47:                                               ; preds = %41, %33
  %48 = load ptr, ptr %10, align 8, !tbaa !76
  %49 = getelementptr inbounds nuw %struct.H265RawSEI, ptr %48, i32 0, i32 1
  %50 = load ptr, ptr %7, align 8, !tbaa !72
  store ptr %49, ptr %50, align 8, !tbaa !29
  store i32 0, ptr %9, align 4
  br label %51

51:                                               ; preds = %47, %46
  call void @llvm.lifetime.end.p0(i64 8, ptr %10) #7
  %52 = load i32, ptr %9, align 4
  switch i32 %52, label %79 [
    i32 0, label %53
    i32 1, label %77
  ]

53:                                               ; preds = %51
  br label %76

54:                                               ; preds = %3
  call void @llvm.lifetime.start.p0(i64 8, ptr %11) #7
  %55 = load ptr, ptr %6, align 8, !tbaa !41
  %56 = getelementptr inbounds nuw %struct.CodedBitstreamUnit, ptr %55, i32 0, i32 5
  %57 = load ptr, ptr %56, align 8, !tbaa !65
  store ptr %57, ptr %11, align 8, !tbaa !78
  %58 = load ptr, ptr %6, align 8, !tbaa !41
  %59 = getelementptr inbounds nuw %struct.CodedBitstreamUnit, ptr %58, i32 0, i32 0
  %60 = load i32, ptr %59, align 8, !tbaa !58
  %61 = icmp ne i32 %60, 23
  br i1 %61, label %62, label %68

62:                                               ; preds = %54
  %63 = load ptr, ptr %6, align 8, !tbaa !41
  %64 = getelementptr inbounds nuw %struct.CodedBitstreamUnit, ptr %63, i32 0, i32 0
  %65 = load i32, ptr %64, align 8, !tbaa !58
  %66 = icmp ne i32 %65, 24
  br i1 %66, label %67, label %68

67:                                               ; preds = %62
  store i32 -22, ptr %4, align 4
  store i32 1, ptr %9, align 4
  br label %72

68:                                               ; preds = %62, %54
  %69 = load ptr, ptr %11, align 8, !tbaa !78
  %70 = getelementptr inbounds nuw %struct.H266RawSEI, ptr %69, i32 0, i32 1
  %71 = load ptr, ptr %7, align 8, !tbaa !72
  store ptr %70, ptr %71, align 8, !tbaa !29
  store i32 0, ptr %9, align 4
  br label %72

72:                                               ; preds = %68, %67
  call void @llvm.lifetime.end.p0(i64 8, ptr %11) #7
  %73 = load i32, ptr %9, align 4
  switch i32 %73, label %79 [
    i32 0, label %74
    i32 1, label %77
  ]

74:                                               ; preds = %72
  br label %76

75:                                               ; preds = %3
  store i32 -22, ptr %4, align 4
  br label %77

76:                                               ; preds = %74, %53, %32
  store i32 0, ptr %4, align 4
  br label %77

77:                                               ; preds = %76, %75, %72, %51, %30
  %78 = load i32, ptr %4, align 4
  ret i32 %78

79:                                               ; preds = %72, %51, %30
  unreachable
}

; Function Attrs: nounwind uwtable
define void @ff_cbs_sei_delete_message_type(ptr noundef %0, ptr noundef %1, i32 noundef %2) #0 {
  %4 = alloca ptr, align 8
  %5 = alloca ptr, align 8
  %6 = alloca i32, align 4
  %7 = alloca i32, align 4
  %8 = alloca i32, align 4
  %9 = alloca i32, align 4
  %10 = alloca ptr, align 8
  %11 = alloca ptr, align 8
  %12 = alloca i32, align 4
  store ptr %0, ptr %4, align 8, !tbaa !37
  store ptr %1, ptr %5, align 8, !tbaa !39
  store i32 %2, ptr %6, align 4, !tbaa !27
  call void @llvm.lifetime.start.p0(i64 4, ptr %7) #7
  call void @llvm.lifetime.start.p0(i64 4, ptr %8) #7
  call void @llvm.lifetime.start.p0(i64 4, ptr %9) #7
  store i32 0, ptr %8, align 4, !tbaa !27
  br label %13

13:                                               ; preds = %62, %3
  %14 = load i32, ptr %8, align 4, !tbaa !27
  %15 = load ptr, ptr %5, align 8, !tbaa !39
  %16 = getelementptr inbounds nuw %struct.CodedBitstreamFragment, ptr %15, i32 0, i32 4
  %17 = load i32, ptr %16, align 8, !tbaa !54
  %18 = icmp slt i32 %14, %17
  br i1 %18, label %19, label %65

19:                                               ; preds = %13
  call void @llvm.lifetime.start.p0(i64 8, ptr %10) #7
  %20 = load ptr, ptr %5, align 8, !tbaa !39
  %21 = getelementptr inbounds nuw %struct.CodedBitstreamFragment, ptr %20, i32 0, i32 6
  %22 = load ptr, ptr %21, align 8, !tbaa !57
  %23 = load i32, ptr %8, align 4, !tbaa !27
  %24 = sext i32 %23 to i64
  %25 = getelementptr inbounds %struct.CodedBitstreamUnit, ptr %22, i64 %24
  store ptr %25, ptr %10, align 8, !tbaa !41
  call void @llvm.lifetime.start.p0(i64 8, ptr %11) #7
  %26 = load ptr, ptr %4, align 8, !tbaa !37
  %27 = load ptr, ptr %10, align 8, !tbaa !41
  %28 = call i32 @cbs_sei_get_message_list(ptr noundef %26, ptr noundef %27, ptr noundef %11)
  store i32 %28, ptr %7, align 4, !tbaa !27
  %29 = load i32, ptr %7, align 4, !tbaa !27
  %30 = icmp slt i32 %29, 0
  br i1 %30, label %31, label %32

31:                                               ; preds = %19
  store i32 4, ptr %12, align 4
  br label %59

32:                                               ; preds = %19
  %33 = load ptr, ptr %11, align 8, !tbaa !29
  %34 = getelementptr inbounds nuw %struct.SEIRawMessageList, ptr %33, i32 0, i32 1
  %35 = load i32, ptr %34, align 8, !tbaa !33
  %36 = sub nsw i32 %35, 1
  store i32 %36, ptr %9, align 4, !tbaa !27
  br label %37

37:                                               ; preds = %55, %32
  %38 = load i32, ptr %9, align 4, !tbaa !27
  %39 = icmp sge i32 %38, 0
  br i1 %39, label %40, label %58

40:                                               ; preds = %37
  %41 = load ptr, ptr %11, align 8, !tbaa !29
  %42 = getelementptr inbounds nuw %struct.SEIRawMessageList, ptr %41, i32 0, i32 0
  %43 = load ptr, ptr %42, align 8, !tbaa !34
  %44 = load i32, ptr %9, align 4, !tbaa !27
  %45 = sext i32 %44 to i64
  %46 = getelementptr inbounds %struct.SEIRawMessage, ptr %43, i64 %45
  %47 = getelementptr inbounds nuw %struct.SEIRawMessage, ptr %46, i32 0, i32 0
  %48 = load i32, ptr %47, align 8, !tbaa !19
  %49 = load i32, ptr %6, align 4, !tbaa !27
  %50 = icmp eq i32 %48, %49
  br i1 %50, label %51, label %54

51:                                               ; preds = %40
  %52 = load ptr, ptr %11, align 8, !tbaa !29
  %53 = load i32, ptr %9, align 4, !tbaa !27
  call void @cbs_sei_delete_message(ptr noundef %52, i32 noundef %53)
  br label %54

54:                                               ; preds = %51, %40
  br label %55

55:                                               ; preds = %54
  %56 = load i32, ptr %9, align 4, !tbaa !27
  %57 = add nsw i32 %56, -1
  store i32 %57, ptr %9, align 4, !tbaa !27
  br label %37, !llvm.loop !84

58:                                               ; preds = %37
  store i32 0, ptr %12, align 4
  br label %59

59:                                               ; preds = %58, %31
  call void @llvm.lifetime.end.p0(i64 8, ptr %11) #7
  call void @llvm.lifetime.end.p0(i64 8, ptr %10) #7
  %60 = load i32, ptr %12, align 4
  switch i32 %60, label %66 [
    i32 0, label %61
    i32 4, label %62
  ]

61:                                               ; preds = %59
  br label %62

62:                                               ; preds = %61, %59
  %63 = load i32, ptr %8, align 4, !tbaa !27
  %64 = add nsw i32 %63, 1
  store i32 %64, ptr %8, align 4, !tbaa !27
  br label %13, !llvm.loop !85

65:                                               ; preds = %13
  call void @llvm.lifetime.end.p0(i64 4, ptr %9) #7
  call void @llvm.lifetime.end.p0(i64 4, ptr %8) #7
  call void @llvm.lifetime.end.p0(i64 4, ptr %7) #7
  ret void

66:                                               ; preds = %59
  unreachable
}