; Function Attrs: nounwind uwtable
define void @ff_cbs_sei_delete_message_type(ptr noundef readonly captures(none) %0, ptr noundef readonly captures(none) %1, i32 noundef %2) local_unnamed_addr #0 {
  %4 = getelementptr inbounds nuw i8, ptr %1, i64 32
  %5 = load i32, ptr %4, align 8, !tbaa !32
  %6 = icmp sgt i32 %5, 0
  br i1 %6, label %.lr.ph22, label %._crit_edge

.lr.ph22:                                         ; preds = %3
  %7 = getelementptr inbounds nuw i8, ptr %1, i64 40
  %8 = getelementptr i8, ptr %0, i64 8
  br label %9

9:                                                ; preds = %.lr.ph22, %cbs_sei_get_message_list.exit.thread
  %10 = phi i32 [ %5, %.lr.ph22 ], [ %50, %cbs_sei_get_message_list.exit.thread ]
  %indvars.iv24 = phi i64 [ 0, %.lr.ph22 ], [ %indvars.iv.next25, %cbs_sei_get_message_list.exit.thread ]
  %11 = load ptr, ptr %7, align 8, !tbaa !36
  %12 = getelementptr inbounds nuw %struct.CodedBitstreamUnit, ptr %11, i64 %indvars.iv24
  %.val = load ptr, ptr %8, align 8, !tbaa !24
  %.val.val = load i32, ptr %.val, align 8, !tbaa !28
  switch i32 %.val.val, label %cbs_sei_get_message_list.exit.thread [
    i32 27, label %13
    i32 173, label %15
    i32 196, label %17
  ]

13:                                               ; preds = %9
  %14 = load i32, ptr %12, align 8, !tbaa !38
  %.not25.not.i = icmp eq i32 %14, 6
  br i1 %.not25.not.i, label %19, label %cbs_sei_get_message_list.exit.thread

15:                                               ; preds = %9
  %16 = load i32, ptr %12, align 8, !tbaa !38
  %.off.i = add i32 %16, -39
  %switch30.i = icmp ult i32 %.off.i, 2
  br i1 %switch30.i, label %19, label %cbs_sei_get_message_list.exit.thread

17:                                               ; preds = %9
  %18 = load i32, ptr %12, align 8, !tbaa !38
  %.off31.i = add i32 %18, -23
  %switch32.i = icmp ult i32 %.off31.i, 2
  br i1 %switch32.i, label %19, label %cbs_sei_get_message_list.exit.thread

19:                                               ; preds = %17, %15, %13
  %20 = getelementptr inbounds nuw i8, ptr %12, i64 40
  %21 = load ptr, ptr %20, align 8, !tbaa !42
  %22 = getelementptr inbounds nuw i8, ptr %21, i64 8
  %23 = getelementptr inbounds nuw i8, ptr %21, i64 16
  %24 = load i32, ptr %23, align 8, !tbaa !20
  %25 = icmp sgt i32 %24, 0
  br i1 %25, label %.lr.ph.preheader, label %cbs_sei_get_message_list.exit.thread

.lr.ph.preheader:                                 ; preds = %19
  %26 = zext nneg i32 %24 to i64
  br label %.lr.ph

.lr.ph:                                           ; preds = %.lr.ph.preheader, %cbs_sei_delete_message.exit
  %indvars.iv = phi i64 [ %26, %.lr.ph.preheader ], [ %indvars.iv.next, %cbs_sei_delete_message.exit ]
  %indvars.iv.next = add nsw i64 %indvars.iv, -1
  %27 = load ptr, ptr %22, align 8, !tbaa !21
  %28 = getelementptr inbounds nuw %struct.SEIRawMessage, ptr %27, i64 %indvars.iv.next
  %29 = load i32, ptr %28, align 8, !tbaa !15
  %30 = icmp eq i32 %29, %2
  br i1 %30, label %31, label %cbs_sei_delete_message.exit

31:                                               ; preds = %.lr.ph
  %32 = load i32, ptr %23, align 8, !tbaa !20
  %33 = sext i32 %32 to i64
  %.not = icmp sgt i64 %indvars.iv, %33
  br i1 %.not, label %34, label %35

34:                                               ; preds = %31
  tail call void (ptr, i32, ptr, ...) @av_log(ptr noundef null, i32 noundef 0, ptr noundef nonnull @.str, ptr noundef nonnull @.str.5, ptr noundef nonnull @.str.2, i32 noundef 352) #6
  tail call void @abort() #7
  unreachable

35:                                               ; preds = %31
  %36 = getelementptr inbounds nuw i8, ptr %28, i64 16
  tail call void @av_refstruct_unref(ptr noundef nonnull %36) #6
  %37 = getelementptr inbounds nuw i8, ptr %28, i64 24
  tail call void @av_refstruct_unref(ptr noundef nonnull %37) #6
  %38 = load i32, ptr %23, align 8, !tbaa !20
  %39 = add nsw i32 %38, -1
  store i32 %39, ptr %23, align 8, !tbaa !20
  %40 = icmp sgt i32 %38, 1
  br i1 %40, label %41, label %cbs_sei_delete_message.exit

41:                                               ; preds = %35
  %42 = load ptr, ptr %22, align 8, !tbaa !21
  %43 = getelementptr inbounds nuw %struct.SEIRawMessage, ptr %42, i64 %indvars.iv.next
  %44 = getelementptr inbounds nuw i8, ptr %43, i64 40
  %45 = trunc nuw nsw i64 %indvars.iv to i32
  %46 = sub nsw i32 %38, %45
  %47 = sext i32 %46 to i64
  %48 = mul nsw i64 %47, 40
  tail call void @llvm.memmove.p0.p0.i64(ptr align 8 %43, ptr nonnull align 8 %44, i64 %48, i1 false)
  br label %cbs_sei_delete_message.exit

cbs_sei_delete_message.exit:                      ; preds = %41, %35, %.lr.ph
  %49 = icmp samesign ugt i64 %indvars.iv, 1
  br i1 %49, label %.lr.ph, label %cbs_sei_get_message_list.exit.thread.loopexit, !llvm.loop !46

cbs_sei_get_message_list.exit.thread.loopexit:    ; preds = %cbs_sei_delete_message.exit
  %.pre = load i32, ptr %4, align 8, !tbaa !32
  br label %cbs_sei_get_message_list.exit.thread

cbs_sei_get_message_list.exit.thread:             ; preds = %cbs_sei_get_message_list.exit.thread.loopexit, %19, %17, %15, %13, %9
  %50 = phi i32 [ %.pre, %cbs_sei_get_message_list.exit.thread.loopexit ], [ %10, %19 ], [ %10, %17 ], [ %10, %15 ], [ %10, %13 ], [ %10, %9 ]
  %indvars.iv.next25 = add nuw nsw i64 %indvars.iv24, 1
  %51 = sext i32 %50 to i64
  %52 = icmp slt i64 %indvars.iv.next25, %51
  br i1 %52, label %9, label %._crit_edge, !llvm.loop !47

._crit_edge:                                      ; preds = %cbs_sei_get_message_list.exit.thread, %3
  ret void
}